target datalayout = "e-m:e-p270:32:32-p271:32:32-p272:64:64-i64:64-i128:128-f80:128-n8:16:32:64-S128"
target triple = "x86_64-pc-linux-gnu"

%"struct.ODDLParser::Name" = type { i32, ptr }

@_ZN10ODDLParser4TextD1Ev = hidden unnamed_addr alias void (ptr), ptr @_ZN10ODDLParser4TextD2Ev

; Function Attrs: mustprogress nounwind uwtable
define hidden void @_ZN10ODDLParser4NameD2Ev(ptr noundef nonnull align 8 dereferenceable(16) %0) unnamed_addr #1 align 2 {
  %2 = alloca ptr, align 8
  store ptr %0, ptr %2, align 8
  %3 = load ptr, ptr %2, align 8
  %4 = getelementptr inbounds nuw %"struct.ODDLParser::Name", ptr %3, i32 0, i32 1
  %5 = load ptr, ptr %4, align 8
  %6 = icmp eq ptr %5, null
  br i1 %6, label %8, label %7

7:                                                ; preds = %1
  call void @_ZN10ODDLParser4TextD1Ev(ptr noundef nonnull align 8 dereferenceable(24) %5) #10
  call void @_ZdlPvm(ptr noundef %5, i64 noundef 24) #12
  br label %8

8:                                                ; preds = %7, %1
  %9 = getelementptr inbounds nuw %"struct.ODDLParser::Name", ptr %3, i32 0, i32 1
  store ptr null, ptr %9, align 8
  ret void
}