; Function Attrs: mustprogress nounwind uwtable
define hidden void @_ZN10ODDLParser4NameD2Ev(ptr noundef nonnull align 8 captures(none) dereferenceable(16) %0) unnamed_addr #1 align 2 personality ptr @__gxx_personality_v0 {
  %2 = getelementptr inbounds nuw i8, ptr %0, i64 8
  %3 = load ptr, ptr %2, align 8
  %4 = icmp eq ptr %3, null
  br i1 %4, label %10, label %5

5:                                                ; preds = %1
  %6 = getelementptr inbounds nuw i8, ptr %3, i64 16
  %7 = load ptr, ptr %6, align 8
  %8 = icmp eq ptr %7, null
  br i1 %8, label %_ZN10ODDLParser4TextD2Ev.exit, label %9

9:                                                ; preds = %5
  tail call void @_ZdaPv(ptr noundef nonnull %7) #13
  br label %_ZN10ODDLParser4TextD2Ev.exit

_ZN10ODDLParser4TextD2Ev.exit:                    ; preds = %5, %9
  tail call void @_ZdlPvm(ptr noundef nonnull %3, i64 noundef 24) #13
  br label %10

10:                                               ; preds = %_ZN10ODDLParser4TextD2Ev.exit, %1
  store ptr null, ptr %2, align 8
  ret void
}